target datalayout = "e-m:e-p270:32:32-p271:32:32-p272:64:64-i64:64-i128:128-f80:128-n8:16:32:64-S128"
target triple = "x86_64-pc-linux-gnu"

%struct._extcap_complex = type { i32, ptr }

; Function Attrs: null_pointer_is_valid sspstrong uwtable
define hidden double @extcap_complex_get_double(ptr noundef %0) #0 {
  %2 = alloca double, align 8
  %3 = alloca ptr, align 8
  store ptr %0, ptr %3, align 8
  %4 = load ptr, ptr %3, align 8
  %5 = icmp eq ptr %4, null
  br i1 %5, label %16, label %6

6:                                                ; preds = %1
  %7 = load ptr, ptr %3, align 8
  %8 = getelementptr inbounds nuw %struct._extcap_complex, ptr %7, i32 0, i32 1
  %9 = load ptr, ptr %8, align 8
  %10 = icmp eq ptr %9, null
  br i1 %10, label %16, label %11

11:                                               ; preds = %6
  %12 = load ptr, ptr %3, align 8
  %13 = getelementptr inbounds nuw %struct._extcap_complex, ptr %12, i32 0, i32 0
  %14 = load i32, ptr %13, align 8
  %15 = icmp ne i32 %14, 4
  br i1 %15, label %16, label %17

16:                                               ; preds = %11, %6, %1
  store double 0.000000e+00, ptr %2, align 8
  br label %22

17:                                               ; preds = %11
  %18 = load ptr, ptr %3, align 8
  %19 = getelementptr inbounds nuw %struct._extcap_complex, ptr %18, i32 0, i32 1
  %20 = load ptr, ptr %19, align 8
  %21 = call double @g_strtod(ptr noundef %20, ptr noundef null)
  store double %21, ptr %2, align 8
  br label %22

22:                                               ; preds = %17, %16
  %23 = load double, ptr %2, align 8
  ret double %23
}