; Function Attrs: null_pointer_is_valid sspstrong uwtable
define hidden double @extcap_complex_get_double(ptr noundef readonly captures(address_is_null) %0) local_unnamed_addr #0 {
  %2 = icmp eq ptr %0, null
  br i1 %2, label %11, label %3

3:                                                ; preds = %1
  %4 = getelementptr inbounds nuw i8, ptr %0, i64 8
  %5 = load ptr, ptr %4, align 8
  %6 = icmp eq ptr %5, null
  br i1 %6, label %11, label %7

7:                                                ; preds = %3
  %8 = load i32, ptr %0, align 8
  %.not = icmp eq i32 %8, 4
  br i1 %.not, label %9, label %11

9:                                                ; preds = %7
  %10 = tail call double @g_strtod(ptr noundef nonnull %5, ptr noundef null)
  br label %11

11:                                               ; preds = %1, %3, %7, %9
  %.0 = phi double [ %10, %9 ], [ 0.000000e+00, %7 ], [ 0.000000e+00, %3 ], [ 0.000000e+00, %1 ]
  ret double %.0
}